ccopy_reg
_reconstructor
p1
(cargparse
Namespace
p2
c__builtin__
object
p3
NtRp4
(dp5
S'num_epochs'
p6
I50
sS'grad_clip'
p7
F5
sS'rnn_size'
p8
I1024
sS'bpe_codes_path'
p9
NsS'data_dir'
p10
(lp11
S'data/gardens'
p12
asS'vocab_size'
p13
I38
sS'learning_rate'
p14
F0.001
sS'save_dir'
p15
S'save/gardens_new'
p16
sS'gpu_id'
p17
I2
sS'seq_length'
p18
I50
sS'batch_size'
p19
I50
sS'decay_rate'
p20
F0.96999999999999997
sS'init_from'
p21
NsS'log_dir'
p22
S'logs/save/gardens_new'
p23
sS'num_layers'
p24
I4
sS'input_keep_prob'
p25
F1
sS'model'
p26
S'lstm'
p27
sS'save_every'
p28
I1000
sS'output_keep_prob'
p29
F1
sb.